target datalayout = "e-m:e-p270:32:32-p271:32:32-p272:64:64-i64:64-i128:128-f80:128-n8:16:32:64-S128"
target triple = "x86_64-pc-linux-gnu"

%struct.Agraph_s = type { %struct.Agobj_s, %struct.Agdesc_s, %struct._dtlink_s, %struct._dtlink_s, ptr, ptr, ptr, ptr, ptr, ptr, ptr, ptr, ptr }
%struct.Agobj_s = type { %struct.Agtag_s, ptr }
%struct.Agtag_s = type { i32, i64 }
%struct.Agdesc_s = type { i8, [3 x i8] }
%struct._dtlink_s = type { ptr, %union.anon }
%union.anon = type { ptr }
%struct.Agclos_s = type { %struct.Agdisc_s, %struct.Agdstate_s, ptr, [3 x i64], ptr, [3 x ptr], [3 x ptr] }
%struct.Agdisc_s = type { ptr, ptr }
%struct.Agdstate_s = type { ptr }
%struct.Agiodisc_s = type { ptr, ptr, ptr }

@.str.31 = private unnamed_addr constant [2 x i8] c":\00", align 1

; Function Attrs: nounwind uwtable
define internal i32 @write_canonstr(ptr noundef %0, ptr noundef %1, ptr noundef %2) #0 {
  %4 = alloca ptr, align 8
  %5 = alloca ptr, align 8
  %6 = alloca ptr, align 8
  %7 = alloca ptr, align 8
  %8 = alloca i32, align 4
  store ptr %0, ptr %4, align 8
  store ptr %1, ptr %5, align 8
  store ptr %2, ptr %6, align 8
  %9 = load ptr, ptr %4, align 8
  %10 = load ptr, ptr %6, align 8
  %11 = call ptr @agstrdup(ptr noundef %9, ptr noundef %10)
  store ptr %11, ptr %7, align 8
  %12 = load ptr, ptr %4, align 8
  %13 = load ptr, ptr %5, align 8
  %14 = load ptr, ptr %7, align 8
  %15 = call i32 @_write_canonstr(ptr noundef %12, ptr noundef %13, ptr noundef %14, i1 noundef zeroext true)
  store i32 %15, ptr %8, align 4
  %16 = load ptr, ptr %4, align 8
  %17 = load ptr, ptr %7, align 8
  %18 = call i32 @agstrfree(ptr noundef %16, ptr noundef %17)
  %19 = load i32, ptr %8, align 4
  ret i32 %19
}

; Function Attrs: nounwind uwtable
define internal i32 @ioput(ptr noundef %0, ptr noundef %1, ptr noundef %2) #0 {
  %4 = alloca ptr, align 8
  %5 = alloca ptr, align 8
  %6 = alloca ptr, align 8
  store ptr %0, ptr %4, align 8
  store ptr %1, ptr %5, align 8
  store ptr %2, ptr %6, align 8
  %7 = load ptr, ptr %4, align 8
  %8 = getelementptr inbounds %struct.Agraph_s, ptr %7, i32 0, i32 12
  %9 = load ptr, ptr %8, align 8
  %10 = getelementptr inbounds %struct.Agclos_s, ptr %9, i32 0, i32 0
  %11 = getelementptr inbounds %struct.Agdisc_s, ptr %10, i32 0, i32 1
  %12 = load ptr, ptr %11, align 8
  %13 = getelementptr inbounds %struct.Agiodisc_s, ptr %12, i32 0, i32 1
  %14 = load ptr, ptr %13, align 8
  %15 = load ptr, ptr %5, align 8
  %16 = load ptr, ptr %6, align 8
  %17 = call i32 %14(ptr noundef %15, ptr noundef %16)
  ret i32 %17
}

; Function Attrs: nounwind uwtable
define internal i32 @write_port(ptr noundef %0, ptr noundef %1, ptr noundef %2) #0 {
  %4 = alloca i32, align 4
  %5 = alloca ptr, align 8
  %6 = alloca ptr, align 8
  %7 = alloca ptr, align 8
  %8 = alloca ptr, align 8
  %9 = alloca ptr, align 8
  %10 = alloca ptr, align 8
  store ptr %0, ptr %5, align 8
  store ptr %1, ptr %6, align 8
  store ptr %2, ptr %7, align 8
  %11 = load ptr, ptr %7, align 8
  %12 = icmp ne ptr %11, null
  br i1 %12, label %14, label %13

13:                                               ; preds = %3
  store i32 0, ptr %4, align 4
  br label %83

14:                                               ; preds = %3
  %15 = load ptr, ptr %5, align 8
  %16 = call ptr @agraphof(ptr noundef %15)
  store ptr %16, ptr %9, align 8
  %17 = load ptr, ptr %5, align 8
  %18 = load ptr, ptr %7, align 8
  %19 = call ptr @agxget(ptr noundef %17, ptr noundef %18)
  store ptr %19, ptr %8, align 8
  %20 = load ptr, ptr %8, align 8
  %21 = getelementptr inbounds i8, ptr %20, i64 0
  %22 = load i8, ptr %21, align 1
  %23 = sext i8 %22 to i32
  %24 = icmp eq i32 %23, 0
  br i1 %24, label %25, label %26

25:                                               ; preds = %14
  store i32 0, ptr %4, align 4
  br label %83

26:                                               ; preds = %14
  %27 = load ptr, ptr %9, align 8
  %28 = load ptr, ptr %6, align 8
  %29 = call i32 @ioput(ptr noundef %27, ptr noundef %28, ptr noundef @.str.31)
  %30 = icmp eq i32 %29, -1
  br i1 %30, label %31, label %32

31:                                               ; preds = %26
  store i32 -1, ptr %4, align 4
  br label %83

32:                                               ; preds = %26
  %33 = load ptr, ptr %8, align 8
  %34 = call i32 @aghtmlstr(ptr noundef %33)
  %35 = icmp ne i32 %34, 0
  br i1 %35, label %36, label %44

36:                                               ; preds = %32
  %37 = load ptr, ptr %9, align 8
  %38 = load ptr, ptr %6, align 8
  %39 = load ptr, ptr %8, align 8
  %40 = call i32 @write_canonstr(ptr noundef %37, ptr noundef %38, ptr noundef %39)
  %41 = icmp eq i32 %40, -1
  br i1 %41, label %42, label %43

42:                                               ; preds = %36
  store i32 -1, ptr %4, align 4
  br label %83

43:                                               ; preds = %36
  br label %82

44:                                               ; preds = %32
  %45 = load ptr, ptr %8, align 8
  %46 = call ptr @strchr(ptr noundef %45, i32 noundef 58) #6
  store ptr %46, ptr %10, align 8
  %47 = load ptr, ptr %10, align 8
  %48 = icmp ne ptr %47, null
  br i1 %48, label %49, label %73

49:                                               ; preds = %44
  %50 = load ptr, ptr %10, align 8
  store i8 0, ptr %50, align 1
  %51 = load ptr, ptr %9, align 8
  %52 = load ptr, ptr %6, align 8
  %53 = load ptr, ptr %8, align 8
  %54 = call i32 @_write_canonstr(ptr noundef %51, ptr noundef %52, ptr noundef %53, i1 noundef zeroext false)
  %55 = icmp eq i32 %54, -1
  br i1 %55, label %56, label %57

56:                                               ; preds = %49
  store i32 -1, ptr %4, align 4
  br label %83

57:                                               ; preds = %49
  %58 = load ptr, ptr %9, align 8
  %59 = load ptr, ptr %6, align 8
  %60 = call i32 @ioput(ptr noundef %58, ptr noundef %59, ptr noundef @.str.31)
  %61 = icmp eq i32 %60, -1
  br i1 %61, label %62, label %63

62:                                               ; preds = %57
  store i32 -1, ptr %4, align 4
  br label %83

63:                                               ; preds = %57
  %64 = load ptr, ptr %9, align 8
  %65 = load ptr, ptr %6, align 8
  %66 = load ptr, ptr %10, align 8
  %67 = getelementptr inbounds i8, ptr %66, i64 1
  %68 = call i32 @_write_canonstr(ptr noundef %64, ptr noundef %65, ptr noundef %67, i1 noundef zeroext false)
  %69 = icmp eq i32 %68, -1
  br i1 %69, label %70, label %71

70:                                               ; preds = %63
  store i32 -1, ptr %4, align 4
  br label %83

71:                                               ; preds = %63
  %72 = load ptr, ptr %10, align 8
  store i8 58, ptr %72, align 1
  br label %81

73:                                               ; preds = %44
  %74 = load ptr, ptr %9, align 8
  %75 = load ptr, ptr %6, align 8
  %76 = load ptr, ptr %8, align 8
  %77 = call i32 @_write_canonstr(ptr noundef %74, ptr noundef %75, ptr noundef %76, i1 noundef zeroext false)
  %78 = icmp eq i32 %77, -1
  br i1 %78, label %79, label %80

79:                                               ; preds = %73
  store i32 -1, ptr %4, align 4
  br label %83

80:                                               ; preds = %73
  br label %81

81:                                               ; preds = %80, %71
  br label %82

82:                                               ; preds = %81, %43
  store i32 0, ptr %4, align 4
  br label %83

83:                                               ; preds = %82, %79, %70, %62, %56, %42, %31, %25, %13
  %84 = load i32, ptr %4, align 4
  ret i32 %84
}