; Function Attrs: nounwind uwtable
define internal fastcc range(i32 -1, 1) i32 @write_port(ptr noundef nonnull %0, ptr noundef %1, ptr noundef %2) unnamed_addr #0 {
  %.not = icmp eq ptr %2, null
  br i1 %.not, label %_write_canonstr.exit.thread, label %4

4:                                                ; preds = %3
  %5 = tail call ptr @agraphof(ptr noundef nonnull %0) #9
  %6 = tail call ptr @agxget(ptr noundef nonnull %0, ptr noundef nonnull %2) #9
  %7 = load i8, ptr %6, align 1
  %8 = icmp eq i8 %7, 0
  br i1 %8, label %_write_canonstr.exit.thread, label %9

9:                                                ; preds = %4
  %10 = getelementptr i8, ptr %5, i64 128
  %.val30 = load ptr, ptr %10, align 8
  %11 = getelementptr i8, ptr %.val30, i64 8
  %.val30.val = load ptr, ptr %11, align 8
  %12 = getelementptr i8, ptr %.val30.val, i64 8
  %.val30.val.val = load ptr, ptr %12, align 8
  %13 = tail call i32 %.val30.val.val(ptr noundef %1, ptr noundef nonnull @.str.31) #9
  %14 = icmp eq i32 %13, -1
  br i1 %14, label %_write_canonstr.exit.thread, label %15

15:                                               ; preds = %9
  %16 = tail call i32 @aghtmlstr(ptr noundef nonnull %6) #9
  %.not28 = icmp eq i32 %16, 0
  br i1 %.not28, label %22, label %17

17:                                               ; preds = %15
  %18 = tail call ptr @agstrdup(ptr noundef nonnull %5, ptr noundef nonnull %6) #9
  %19 = tail call fastcc i32 @_write_canonstr(ptr noundef nonnull %5, ptr noundef %1, ptr noundef %18, i1 noundef zeroext true)
  %20 = tail call i32 @agstrfree(ptr noundef nonnull %5, ptr noundef %18) #9
  %21 = icmp eq i32 %19, -1
  br i1 %21, label %_write_canonstr.exit.thread, label %76

22:                                               ; preds = %15
  %23 = tail call ptr @strchr(ptr noundef nonnull dereferenceable(1) %6, i32 noundef 58) #10
  %.not29 = icmp eq ptr %23, null
  br i1 %.not29, label %61, label %24

24:                                               ; preds = %22
  store i8 0, ptr %23, align 1
  %25 = tail call i64 @strlen(ptr noundef nonnull readonly dereferenceable(1) %6) #10
  %26 = shl i64 %25, 1
  %27 = add i64 %26, 2
  %spec.select.i.i.i = tail call i64 @llvm.umax.i64(i64 %27, i64 8192)
  %28 = load i64, ptr @getoutputbuffer.len, align 8
  %29 = icmp ugt i64 %spec.select.i.i.i, %28
  %.pre.i.i.i = load ptr, ptr @getoutputbuffer.rv, align 8
  br i1 %29, label %30, label %getoutputbuffer.exit.i

30:                                               ; preds = %24
  %31 = tail call ptr @realloc(ptr noundef %.pre.i.i.i, i64 noundef %spec.select.i.i.i) #11
  %32 = icmp eq ptr %31, null
  br i1 %32, label %_write_canonstr.exit.thread, label %getoutputbuffer.exit.thread13.i

getoutputbuffer.exit.thread13.i:                  ; preds = %30
  store ptr %31, ptr @getoutputbuffer.rv, align 8
  store i64 %spec.select.i.i.i, ptr @getoutputbuffer.len, align 8
  br label %_write_canonstr.exit

getoutputbuffer.exit.i:                           ; preds = %24
  %33 = icmp eq ptr %.pre.i.i.i, null
  br i1 %33, label %_write_canonstr.exit.thread, label %_write_canonstr.exit

_write_canonstr.exit:                             ; preds = %getoutputbuffer.exit.thread13.i, %getoutputbuffer.exit.i
  %.0.i1115.i = phi ptr [ %31, %getoutputbuffer.exit.thread13.i ], [ %.pre.i.i.i, %getoutputbuffer.exit.i ]
  %34 = tail call fastcc ptr @_agstrcanon(ptr noundef nonnull %6, ptr noundef nonnull %.0.i1115.i)
  %.val.i = load ptr, ptr %10, align 8
  %35 = getelementptr i8, ptr %.val.i, i64 8
  %.val.val.i = load ptr, ptr %35, align 8
  %36 = getelementptr i8, ptr %.val.val.i, i64 8
  %.val.val.val.i = load ptr, ptr %36, align 8
  %37 = tail call i32 %.val.val.val.i(ptr noundef %1, ptr noundef %34) #9
  %38 = icmp eq i32 %37, -1
  br i1 %38, label %_write_canonstr.exit.thread, label %39

39:                                               ; preds = %_write_canonstr.exit
  %.val = load ptr, ptr %10, align 8
  %40 = getelementptr i8, ptr %.val, i64 8
  %.val.val = load ptr, ptr %40, align 8
  %41 = getelementptr i8, ptr %.val.val, i64 8
  %.val.val.val = load ptr, ptr %41, align 8
  %42 = tail call i32 %.val.val.val(ptr noundef %1, ptr noundef nonnull @.str.31) #9
  %43 = icmp eq i32 %42, -1
  br i1 %43, label %_write_canonstr.exit.thread, label %44

44:                                               ; preds = %39
  %45 = getelementptr inbounds nuw i8, ptr %23, i64 1
  %46 = tail call i64 @strlen(ptr noundef nonnull readonly dereferenceable(1) %45) #10
  %47 = shl i64 %46, 1
  %48 = add i64 %47, 2
  %spec.select.i.i.i31 = tail call i64 @llvm.umax.i64(i64 %48, i64 8192)
  %49 = load i64, ptr @getoutputbuffer.len, align 8
  %50 = icmp ugt i64 %spec.select.i.i.i31, %49
  %.pre.i.i.i32 = load ptr, ptr @getoutputbuffer.rv, align 8
  br i1 %50, label %51, label %getoutputbuffer.exit.i33

51:                                               ; preds = %44
  %52 = tail call ptr @realloc(ptr noundef %.pre.i.i.i32, i64 noundef %spec.select.i.i.i31) #11
  %53 = icmp eq ptr %52, null
  br i1 %53, label %_write_canonstr.exit.thread, label %getoutputbuffer.exit.thread13.i39

getoutputbuffer.exit.thread13.i39:                ; preds = %51
  store ptr %52, ptr @getoutputbuffer.rv, align 8
  store i64 %spec.select.i.i.i31, ptr @getoutputbuffer.len, align 8
  br label %_write_canonstr.exit40

getoutputbuffer.exit.i33:                         ; preds = %44
  %54 = icmp eq ptr %.pre.i.i.i32, null
  br i1 %54, label %_write_canonstr.exit.thread, label %_write_canonstr.exit40

_write_canonstr.exit40:                           ; preds = %getoutputbuffer.exit.thread13.i39, %getoutputbuffer.exit.i33
  %.0.i1115.i34 = phi ptr [ %52, %getoutputbuffer.exit.thread13.i39 ], [ %.pre.i.i.i32, %getoutputbuffer.exit.i33 ]
  %55 = tail call fastcc ptr @_agstrcanon(ptr noundef nonnull %45, ptr noundef nonnull %.0.i1115.i34)
  %.val.i35 = load ptr, ptr %10, align 8
  %56 = getelementptr i8, ptr %.val.i35, i64 8
  %.val.val.i36 = load ptr, ptr %56, align 8
  %57 = getelementptr i8, ptr %.val.val.i36, i64 8
  %.val.val.val.i37 = load ptr, ptr %57, align 8
  %58 = tail call i32 %.val.val.val.i37(ptr noundef %1, ptr noundef %55) #9
  %59 = icmp eq i32 %58, -1
  br i1 %59, label %_write_canonstr.exit.thread, label %60

60:                                               ; preds = %_write_canonstr.exit40
  store i8 58, ptr %23, align 1
  br label %76

61:                                               ; preds = %22
  %62 = tail call i64 @strlen(ptr noundef nonnull readonly dereferenceable(1) %6) #10
  %63 = shl i64 %62, 1
  %64 = add i64 %63, 2
  %spec.select.i.i.i41 = tail call i64 @llvm.umax.i64(i64 %64, i64 8192)
  %65 = load i64, ptr @getoutputbuffer.len, align 8
  %66 = icmp ugt i64 %spec.select.i.i.i41, %65
  %.pre.i.i.i42 = load ptr, ptr @getoutputbuffer.rv, align 8
  br i1 %66, label %67, label %getoutputbuffer.exit.i43

67:                                               ; preds = %61
  %68 = tail call ptr @realloc(ptr noundef %.pre.i.i.i42, i64 noundef %spec.select.i.i.i41) #11
  %69 = icmp eq ptr %68, null
  br i1 %69, label %_write_canonstr.exit.thread, label %getoutputbuffer.exit.thread13.i49

getoutputbuffer.exit.thread13.i49:                ; preds = %67
  store ptr %68, ptr @getoutputbuffer.rv, align 8
  store i64 %spec.select.i.i.i41, ptr @getoutputbuffer.len, align 8
  br label %_write_canonstr.exit50

getoutputbuffer.exit.i43:                         ; preds = %61
  %70 = icmp eq ptr %.pre.i.i.i42, null
  br i1 %70, label %_write_canonstr.exit.thread, label %_write_canonstr.exit50

_write_canonstr.exit50:                           ; preds = %getoutputbuffer.exit.thread13.i49, %getoutputbuffer.exit.i43
  %.0.i1115.i44 = phi ptr [ %68, %getoutputbuffer.exit.thread13.i49 ], [ %.pre.i.i.i42, %getoutputbuffer.exit.i43 ]
  %71 = tail call fastcc ptr @_agstrcanon(ptr noundef nonnull %6, ptr noundef nonnull %.0.i1115.i44)
  %.val.i45 = load ptr, ptr %10, align 8
  %72 = getelementptr i8, ptr %.val.i45, i64 8
  %.val.val.i46 = load ptr, ptr %72, align 8
  %73 = getelementptr i8, ptr %.val.val.i46, i64 8
  %.val.val.val.i47 = load ptr, ptr %73, align 8
  %74 = tail call i32 %.val.val.val.i47(ptr noundef %1, ptr noundef %71) #9
  %75 = icmp eq i32 %74, -1
  br i1 %75, label %_write_canonstr.exit.thread, label %76

76:                                               ; preds = %60, %_write_canonstr.exit50, %17
  br label %_write_canonstr.exit.thread

_write_canonstr.exit.thread:                      ; preds = %67, %getoutputbuffer.exit.i43, %51, %getoutputbuffer.exit.i33, %30, %getoutputbuffer.exit.i, %_write_canonstr.exit50, %_write_canonstr.exit40, %39, %_write_canonstr.exit, %17, %9, %4, %3, %76
  %.0 = phi i32 [ 0, %76 ], [ 0, %3 ], [ 0, %4 ], [ -1, %9 ], [ -1, %17 ], [ -1, %_write_canonstr.exit ], [ -1, %39 ], [ -1, %_write_canonstr.exit40 ], [ -1, %_write_canonstr.exit50 ], [ -1, %getoutputbuffer.exit.i ], [ -1, %30 ], [ -1, %getoutputbuffer.exit.i33 ], [ -1, %51 ], [ -1, %getoutputbuffer.exit.i43 ], [ -1, %67 ]
  ret i32 %.0
}